; Function Attrs: nofree norecurse nosync nounwind memory(none) uwtable
define i32 @ff_dnxhd_get_frame_size(i32 noundef %0) local_unnamed_addr #0 {
  br label %3

2:                                                ; preds = %3
  %indvars.iv.next.i = add nuw nsw i64 %indvars.iv.i, 1
  %exitcond.i = icmp eq i64 %indvars.iv.next.i, 20
  br i1 %exitcond.i, label %ff_dnxhd_get_cid_table.exit.thread, label %3, !llvm.loop !4

3:                                                ; preds = %2, %1
  %indvars.iv.i = phi i64 [ 0, %1 ], [ %indvars.iv.next.i, %2 ]
  %4 = getelementptr inbounds nuw [20 x %struct.CIDEntry], ptr @dnxhd_cid_table, i64 0, i64 %indvars.iv.i
  %5 = load i32, ptr %4, align 8, !tbaa !6
  %6 = icmp eq i32 %5, %0
  br i1 %6, label %ff_dnxhd_get_cid_table.exit, label %2

ff_dnxhd_get_cid_table.exit:                      ; preds = %3
  %7 = getelementptr inbounds nuw i8, ptr %4, i64 12
  %8 = load i32, ptr %7, align 4, !tbaa !16
  br label %ff_dnxhd_get_cid_table.exit.thread

ff_dnxhd_get_cid_table.exit.thread:               ; preds = %2, %ff_dnxhd_get_cid_table.exit
  %.0 = phi i32 [ %8, %ff_dnxhd_get_cid_table.exit ], [ -1, %2 ]
  ret i32 %.0
}